; Function Attrs: mustprogress uwtable
define dso_local noundef zeroext i1 @_ZNK9Statement11is_ptr_usedEv(ptr noundef nonnull align 8 dereferenceable(32) %0) local_unnamed_addr #4 align 2 personality ptr @__gxx_personality_v0 {
  %2 = alloca %"class.std::vector.11", align 8
  call void @llvm.memset.p0.i64(ptr noundef nonnull align 8 dereferenceable(24) %2, i8 0, i64 24, i1 false)
  invoke void @_ZNK9Statement19get_referenced_ptrsERSt6vectorIPK8VariableSaIS3_EE(ptr noundef nonnull align 8 dereferenceable(32) %0, ptr noundef nonnull align 8 dereferenceable(24) %2)
          to label %3 unwind label %9

3:                                                ; preds = %1
  %4 = load ptr, ptr %2, align 8
  %5 = getelementptr inbounds i8, ptr %2, i64 8
  %6 = load ptr, ptr %5, align 8
  %.not.i.i.i = icmp eq ptr %4, null
  br i1 %.not.i.i.i, label %_ZNSt6vectorIPK8VariableSaIS2_EED2Ev.exit, label %7

7:                                                ; preds = %3
  call void @_ZdlPv(ptr noundef nonnull %4) #22
  br label %_ZNSt6vectorIPK8VariableSaIS2_EED2Ev.exit

_ZNSt6vectorIPK8VariableSaIS2_EED2Ev.exit:        ; preds = %3, %7
  %8 = icmp ne ptr %4, %6
  ret i1 %8

9:                                                ; preds = %1
  %10 = landingpad { ptr, i32 }
          cleanup
  %11 = load ptr, ptr %2, align 8
  %.not.i.i.i2 = icmp eq ptr %11, null
  br i1 %.not.i.i.i2, label %_ZNSt6vectorIPK8VariableSaIS2_EED2Ev.exit3, label %12

12:                                               ; preds = %9
  call void @_ZdlPv(ptr noundef nonnull %11) #22
  br label %_ZNSt6vectorIPK8VariableSaIS2_EED2Ev.exit3

_ZNSt6vectorIPK8VariableSaIS2_EED2Ev.exit3:       ; preds = %9, %12
  resume { ptr, i32 } %10
}